target datalayout = "e-m:e-p270:32:32-p271:32:32-p272:64:64-i64:64-i128:128-f80:128-n8:16:32:64-S128"
target triple = "x86_64-pc-linux-gnu"

%union.anon = type { ptr }
%union.anon.0 = type { ptr }

; Function Attrs: inlinehint nounwind uwtable
define internal void @XorWords(ptr noundef %0, ptr noundef %1, i32 noundef %2) #7 {
  %4 = alloca ptr, align 8
  %5 = alloca ptr, align 8
  %6 = alloca i32, align 4
  %7 = alloca i32, align 4
  store ptr %0, ptr %4, align 8, !tbaa !54
  store ptr %1, ptr %5, align 8, !tbaa !54
  store i32 %2, ptr %6, align 4, !tbaa !7
  call void @llvm.lifetime.start.p0(i64 4, ptr %7) #8
  store i32 0, ptr %7, align 4, !tbaa !7
  br label %8

8:                                                ; preds = %22, %3
  %9 = load i32, ptr %7, align 4, !tbaa !7
  %10 = load i32, ptr %6, align 4, !tbaa !7
  %11 = icmp ult i32 %9, %10
  br i1 %11, label %12, label %25

12:                                               ; preds = %8
  %13 = load ptr, ptr %5, align 8, !tbaa !54
  %14 = load ptr, ptr %13, align 8, !tbaa !44
  %15 = getelementptr inbounds nuw i64, ptr %14, i32 1
  store ptr %15, ptr %13, align 8, !tbaa !44
  %16 = load i64, ptr %14, align 8, !tbaa !46
  %17 = load ptr, ptr %4, align 8, !tbaa !54
  %18 = load ptr, ptr %17, align 8, !tbaa !44
  %19 = getelementptr inbounds nuw i64, ptr %18, i32 1
  store ptr %19, ptr %17, align 8, !tbaa !44
  %20 = load i64, ptr %18, align 8, !tbaa !46
  %21 = xor i64 %20, %16
  store i64 %21, ptr %18, align 8, !tbaa !46
  br label %22

22:                                               ; preds = %12
  %23 = load i32, ptr %7, align 4, !tbaa !7
  %24 = add i32 %23, 1
  store i32 %24, ptr %7, align 4, !tbaa !7
  br label %8, !llvm.loop !56

25:                                               ; preds = %8
  call void @llvm.lifetime.end.p0(i64 4, ptr %7) #8
  ret void
}

; Function Attrs: inlinehint nounwind uwtable
define internal void @xorbuf(ptr noundef %0, ptr noundef %1, i32 noundef %2) #7 {
  %4 = alloca ptr, align 8
  %5 = alloca ptr, align 8
  %6 = alloca i32, align 4
  %7 = alloca i32, align 4
  %8 = alloca ptr, align 8
  %9 = alloca ptr, align 8
  %10 = alloca %union.anon, align 8
  %11 = alloca %union.anon.0, align 8
  store ptr %0, ptr %4, align 8, !tbaa !3
  store ptr %1, ptr %5, align 8, !tbaa !3
  store i32 %2, ptr %6, align 4, !tbaa !7
  call void @llvm.lifetime.start.p0(i64 4, ptr %7) #8
  call void @llvm.lifetime.start.p0(i64 8, ptr %8) #8
  call void @llvm.lifetime.start.p0(i64 8, ptr %9) #8
  %12 = load ptr, ptr %4, align 8, !tbaa !3
  store ptr %12, ptr %8, align 8, !tbaa !27
  %13 = load ptr, ptr %5, align 8, !tbaa !3
  store ptr %13, ptr %9, align 8, !tbaa !27
  %14 = load ptr, ptr %8, align 8, !tbaa !27
  %15 = ptrtoint ptr %14 to i64
  %16 = urem i64 %15, 8
  %17 = load ptr, ptr %9, align 8, !tbaa !27
  %18 = ptrtoint ptr %17 to i64
  %19 = urem i64 %18, 8
  %20 = icmp eq i64 %16, %19
  br i1 %20, label %21, label %54

21:                                               ; preds = %3
  call void @llvm.lifetime.start.p0(i64 8, ptr %10) #8
  call void @llvm.lifetime.start.p0(i64 8, ptr %11) #8
  br label %22

22:                                               ; preds = %32, %21
  %23 = load ptr, ptr %4, align 8, !tbaa !3
  %24 = ptrtoint ptr %23 to i64
  %25 = urem i64 %24, 8
  %26 = icmp ne i64 %25, 0
  br i1 %26, label %27, label %30

27:                                               ; preds = %22
  %28 = load i32, ptr %6, align 4, !tbaa !7
  %29 = icmp ugt i32 %28, 0
  br label %30

30:                                               ; preds = %27, %22
  %31 = phi i1 [ false, %22 ], [ %29, %27 ]
  br i1 %31, label %32, label %45

32:                                               ; preds = %30
  %33 = load ptr, ptr %9, align 8, !tbaa !27
  %34 = getelementptr inbounds nuw i8, ptr %33, i32 1
  store ptr %34, ptr %9, align 8, !tbaa !27
  %35 = load i8, ptr %33, align 1, !tbaa !28
  %36 = zext i8 %35 to i32
  %37 = load ptr, ptr %8, align 8, !tbaa !27
  %38 = getelementptr inbounds nuw i8, ptr %37, i32 1
  store ptr %38, ptr %8, align 8, !tbaa !27
  %39 = load i8, ptr %37, align 1, !tbaa !28
  %40 = zext i8 %39 to i32
  %41 = xor i32 %40, %36
  %42 = trunc i32 %41 to i8
  store i8 %42, ptr %37, align 1, !tbaa !28
  %43 = load i32, ptr %6, align 4, !tbaa !7
  %44 = add i32 %43, -1
  store i32 %44, ptr %6, align 4, !tbaa !7
  br label %22, !llvm.loop !50

45:                                               ; preds = %30
  %46 = load ptr, ptr %8, align 8, !tbaa !27
  store ptr %46, ptr %10, align 8, !tbaa !28
  %47 = load ptr, ptr %9, align 8, !tbaa !27
  store ptr %47, ptr %11, align 8, !tbaa !28
  %48 = load i32, ptr %6, align 4, !tbaa !7
  %49 = udiv i32 %48, 8
  call void @XorWords(ptr noundef %10, ptr noundef %11, i32 noundef %49)
  %50 = load ptr, ptr %10, align 8, !tbaa !28
  store ptr %50, ptr %8, align 8, !tbaa !27
  %51 = load ptr, ptr %11, align 8, !tbaa !28
  store ptr %51, ptr %9, align 8, !tbaa !27
  %52 = load i32, ptr %6, align 4, !tbaa !7
  %53 = urem i32 %52, 8
  store i32 %53, ptr %6, align 4, !tbaa !7
  call void @llvm.lifetime.end.p0(i64 8, ptr %11) #8
  call void @llvm.lifetime.end.p0(i64 8, ptr %10) #8
  br label %54

54:                                               ; preds = %45, %3
  store i32 0, ptr %7, align 4, !tbaa !7
  br label %55

55:                                               ; preds = %74, %54
  %56 = load i32, ptr %7, align 4, !tbaa !7
  %57 = load i32, ptr %6, align 4, !tbaa !7
  %58 = icmp ult i32 %56, %57
  br i1 %58, label %59, label %77

59:                                               ; preds = %55
  %60 = load ptr, ptr %9, align 8, !tbaa !27
  %61 = load i32, ptr %7, align 4, !tbaa !7
  %62 = zext i32 %61 to i64
  %63 = getelementptr inbounds nuw i8, ptr %60, i64 %62
  %64 = load i8, ptr %63, align 1, !tbaa !28
  %65 = zext i8 %64 to i32
  %66 = load ptr, ptr %8, align 8, !tbaa !27
  %67 = load i32, ptr %7, align 4, !tbaa !7
  %68 = zext i32 %67 to i64
  %69 = getelementptr inbounds nuw i8, ptr %66, i64 %68
  %70 = load i8, ptr %69, align 1, !tbaa !28
  %71 = zext i8 %70 to i32
  %72 = xor i32 %71, %65
  %73 = trunc i32 %72 to i8
  store i8 %73, ptr %69, align 1, !tbaa !28
  br label %74

74:                                               ; preds = %59
  %75 = load i32, ptr %7, align 4, !tbaa !7
  %76 = add i32 %75, 1
  store i32 %76, ptr %7, align 4, !tbaa !7
  br label %55, !llvm.loop !51

77:                                               ; preds = %55
  call void @llvm.lifetime.end.p0(i64 8, ptr %9) #8
  call void @llvm.lifetime.end.p0(i64 8, ptr %8) #8
  call void @llvm.lifetime.end.p0(i64 4, ptr %7) #8
  ret void
}