; Function Attrs: inlinehint nofree norecurse nosync nounwind memory(argmem: readwrite) uwtable
define internal fastcc void @xorbuf(ptr noundef %0, ptr noundef %1, i32 noundef %2) unnamed_addr #9 {
  %4 = ptrtoint ptr %0 to i64
  %5 = and i64 %4, 7
  %6 = ptrtoint ptr %1 to i64
  %7 = and i64 %6, 7
  %8 = icmp eq i64 %5, %7
  br i1 %8, label %.preheader, label %26

.preheader:                                       ; preds = %3
  %9 = icmp ne i64 %5, 0
  %10 = icmp ne i32 %2, 0
  %11 = and i1 %9, %10
  br i1 %11, label %.lr.ph.split, label %._crit_edge

.lr.ph.split:                                     ; preds = %.preheader, %.lr.ph.split
  %.131 = phi ptr [ %12, %.lr.ph.split ], [ %1, %.preheader ]
  %.12030 = phi ptr [ %14, %.lr.ph.split ], [ %0, %.preheader ]
  %.12329 = phi i32 [ %17, %.lr.ph.split ], [ %2, %.preheader ]
  %12 = getelementptr inbounds nuw i8, ptr %.131, i64 1
  %13 = load i8, ptr %.131, align 1, !tbaa !20
  %14 = getelementptr inbounds nuw i8, ptr %.12030, i64 1
  %15 = load i8, ptr %.12030, align 1, !tbaa !20
  %16 = xor i8 %15, %13
  store i8 %16, ptr %.12030, align 1, !tbaa !20
  %17 = add i32 %.12329, -1
  %.not = icmp eq i32 %17, 0
  br i1 %.not, label %XorWords.exit, label %.lr.ph.split, !llvm.loop !34

._crit_edge:                                      ; preds = %.preheader
  %18 = lshr i32 %2, 3
  %.not.i = icmp ult i32 %2, 8
  br i1 %.not.i, label %XorWords.exit, label %.lr.ph.i

.lr.ph.i:                                         ; preds = %._crit_edge, %.lr.ph.i
  %.sroa.026.0 = phi ptr [ %21, %.lr.ph.i ], [ %0, %._crit_edge ]
  %.sroa.0.0 = phi ptr [ %19, %.lr.ph.i ], [ %1, %._crit_edge ]
  %.04.i = phi i32 [ %24, %.lr.ph.i ], [ 0, %._crit_edge ]
  %19 = getelementptr inbounds nuw i8, ptr %.sroa.0.0, i64 8
  %20 = load i64, ptr %.sroa.0.0, align 8, !tbaa !23
  %21 = getelementptr inbounds nuw i8, ptr %.sroa.026.0, i64 8
  %22 = load i64, ptr %.sroa.026.0, align 8, !tbaa !23
  %23 = xor i64 %22, %20
  store i64 %23, ptr %.sroa.026.0, align 8, !tbaa !23
  %24 = add nuw nsw i32 %.04.i, 1
  %exitcond.not.i = icmp eq i32 %24, %18
  br i1 %exitcond.not.i, label %XorWords.exit, label %.lr.ph.i, !llvm.loop !32

XorWords.exit:                                    ; preds = %.lr.ph.i, %.lr.ph.split, %._crit_edge
  %.123.lcssa50 = phi i32 [ %2, %._crit_edge ], [ 0, %.lr.ph.split ], [ %2, %.lr.ph.i ]
  %.sroa.026.1 = phi ptr [ %0, %._crit_edge ], [ %14, %.lr.ph.split ], [ %21, %.lr.ph.i ]
  %.sroa.0.1 = phi ptr [ %1, %._crit_edge ], [ %12, %.lr.ph.split ], [ %19, %.lr.ph.i ]
  %25 = and i32 %.123.lcssa50, 7
  br label %26

26:                                               ; preds = %XorWords.exit, %3
  %.022 = phi i32 [ %25, %XorWords.exit ], [ %2, %3 ]
  %.019 = phi ptr [ %.sroa.026.1, %XorWords.exit ], [ %0, %3 ]
  %.0 = phi ptr [ %.sroa.0.1, %XorWords.exit ], [ %1, %3 ]
  %.not40 = icmp eq i32 %.022, 0
  br i1 %.not40, label %._crit_edge39, label %.lr.ph38.preheader

.lr.ph38.preheader:                               ; preds = %26
  %wide.trip.count = zext i32 %.022 to i64
  br label %.lr.ph38

.lr.ph38:                                         ; preds = %.lr.ph38.preheader, %.lr.ph38
  %indvars.iv = phi i64 [ 0, %.lr.ph38.preheader ], [ %indvars.iv.next, %.lr.ph38 ]
  %27 = getelementptr inbounds nuw i8, ptr %.0, i64 %indvars.iv
  %28 = load i8, ptr %27, align 1, !tbaa !20
  %29 = getelementptr inbounds nuw i8, ptr %.019, i64 %indvars.iv
  %30 = load i8, ptr %29, align 1, !tbaa !20
  %31 = xor i8 %30, %28
  store i8 %31, ptr %29, align 1, !tbaa !20
  %indvars.iv.next = add nuw nsw i64 %indvars.iv, 1
  %exitcond.not = icmp eq i64 %indvars.iv.next, %wide.trip.count
  br i1 %exitcond.not, label %._crit_edge39, label %.lr.ph38, !llvm.loop !33

._crit_edge39:                                    ; preds = %.lr.ph38, %26
  ret void
}